target datalayout = "e-m:e-p270:32:32-p271:32:32-p272:64:64-i64:64-i128:128-f80:128-n8:16:32:64-S128"
target triple = "x86_64-pc-linux-gnu"

%"class.std::__cxx11::basic_string" = type { %"struct.std::__cxx11::basic_string<char>::_Alloc_hider", i64, %union.anon.0 }
%"struct.std::__cxx11::basic_string<char>::_Alloc_hider" = type { ptr }
%union.anon.0 = type { i64, [8 x i8] }
%"class.std::allocator" = type { i8 }
%"struct.pkpy::Str" = type { i32, i8, ptr, [16 x i8] }
%"class.__gnu_cxx::__normal_iterator" = type { ptr }
%class.anon = type { i8 }

@_ZN4pkpy3StrC1ERKNSt7__cxx1112basic_stringIcSt11char_traitsIcESaIcEEE = unnamed_addr alias void (ptr, ptr), ptr @_ZN4pkpy3StrC2ERKNSt7__cxx1112basic_stringIcSt11char_traitsIcESaIcEEE

; Function Attrs: mustprogress nounwind uwtable
define linkonce_odr noundef nonnull align 8 dereferenceable(8) ptr @_ZNK9__gnu_cxx17__normal_iteratorIPcNSt7__cxx1112basic_stringIcSt11char_traitsIcESaIcEEEE4baseEv(ptr noundef nonnull align 8 dereferenceable(8) %0) #5 comdat align 2 {
  %2 = alloca ptr, align 8
  store ptr %0, ptr %2, align 8
  %3 = load ptr, ptr %2, align 8
  %4 = getelementptr inbounds %"class.__gnu_cxx::__normal_iterator", ptr %3, i32 0, i32 0
  ret ptr %4
}

; Function Attrs: mustprogress nounwind uwtable
define linkonce_odr noundef nonnull align 8 dereferenceable(8) ptr @_ZN9__gnu_cxx17__normal_iteratorIPcNSt7__cxx1112basic_stringIcSt11char_traitsIcESaIcEEEEppEv(ptr noundef nonnull align 8 dereferenceable(8) %0) #5 comdat align 2 {
  %2 = alloca ptr, align 8
  store ptr %0, ptr %2, align 8
  %3 = load ptr, ptr %2, align 8
  %4 = getelementptr inbounds %"class.__gnu_cxx::__normal_iterator", ptr %3, i32 0, i32 0
  %5 = load ptr, ptr %4, align 8
  %6 = getelementptr inbounds i8, ptr %5, i32 1
  store ptr %6, ptr %4, align 8
  ret ptr %3
}

; Function Attrs: mustprogress nounwind uwtable
define internal noundef i32 @"_ZZNK4pkpy3Str5lowerEvENK3$_0clEh"(ptr noundef nonnull align 1 dereferenceable(1) %0, i8 noundef zeroext %1) #5 align 2 {
  %3 = alloca i32, align 4
  %4 = alloca ptr, align 8
  %5 = alloca i8, align 1
  store ptr %0, ptr %4, align 8
  store i8 %1, ptr %5, align 1
  %6 = load i8, ptr %5, align 1
  %7 = zext i8 %6 to i32
  %8 = icmp sle i32 65, %7
  br i1 %8, label %9, label %17

9:                                                ; preds = %2
  %10 = load i8, ptr %5, align 1
  %11 = zext i8 %10 to i32
  %12 = icmp sle i32 %11, 90
  br i1 %12, label %13, label %17

13:                                               ; preds = %9
  %14 = load i8, ptr %5, align 1
  %15 = zext i8 %14 to i32
  %16 = add nsw i32 %15, 32
  store i32 %16, ptr %3, align 4
  br label %20

17:                                               ; preds = %9, %2
  %18 = load i8, ptr %5, align 1
  %19 = zext i8 %18 to i32
  store i32 %19, ptr %3, align 4
  br label %20

20:                                               ; preds = %17, %13
  %21 = load i32, ptr %3, align 4
  ret i32 %21
}

; Function Attrs: mustprogress nounwind uwtable
define linkonce_odr noundef nonnull align 1 dereferenceable(1) ptr @_ZNK9__gnu_cxx17__normal_iteratorIPcNSt7__cxx1112basic_stringIcSt11char_traitsIcESaIcEEEEdeEv(ptr noundef nonnull align 8 dereferenceable(8) %0) #5 comdat align 2 {
  %2 = alloca ptr, align 8
  store ptr %0, ptr %2, align 8
  %3 = load ptr, ptr %2, align 8
  %4 = getelementptr inbounds %"class.__gnu_cxx::__normal_iterator", ptr %3, i32 0, i32 0
  %5 = load ptr, ptr %4, align 8
  ret ptr %5
}

; Function Attrs: mustprogress nounwind uwtable
define linkonce_odr noundef zeroext i1 @_ZN9__gnu_cxxneIPcNSt7__cxx1112basic_stringIcSt11char_traitsIcESaIcEEEEEbRKNS_17__normal_iteratorIT_T0_EESD_(ptr noundef nonnull align 8 dereferenceable(8) %0, ptr noundef nonnull align 8 dereferenceable(8) %1) #5 comdat {
  %3 = alloca ptr, align 8
  %4 = alloca ptr, align 8
  store ptr %0, ptr %3, align 8
  store ptr %1, ptr %4, align 8
  %5 = load ptr, ptr %3, align 8
  %6 = call noundef nonnull align 8 dereferenceable(8) ptr @_ZNK9__gnu_cxx17__normal_iteratorIPcNSt7__cxx1112basic_stringIcSt11char_traitsIcESaIcEEEE4baseEv(ptr noundef nonnull align 8 dereferenceable(8) %5) #3
  %7 = load ptr, ptr %6, align 8
  %8 = load ptr, ptr %4, align 8
  %9 = call noundef nonnull align 8 dereferenceable(8) ptr @_ZNK9__gnu_cxx17__normal_iteratorIPcNSt7__cxx1112basic_stringIcSt11char_traitsIcESaIcEEEE4baseEv(ptr noundef nonnull align 8 dereferenceable(8) %8) #3
  %10 = load ptr, ptr %9, align 8
  %11 = icmp ne ptr %7, %10
  ret i1 %11
}

; Function Attrs: mustprogress uwtable
define internal ptr @"_ZSt9transformIN9__gnu_cxx17__normal_iteratorIPcNSt7__cxx1112basic_stringIcSt11char_traitsIcESaIcEEEEES9_ZNK4pkpy3Str5lowerEvE3$_0ET0_T_SE_SD_T1_"(ptr %0, ptr %1, ptr %2) #4 {
  %4 = alloca %"class.__gnu_cxx::__normal_iterator", align 8
  %5 = alloca %"class.__gnu_cxx::__normal_iterator", align 8
  %6 = alloca %"class.__gnu_cxx::__normal_iterator", align 8
  %7 = alloca %"class.__gnu_cxx::__normal_iterator", align 8
  %8 = alloca %class.anon, align 1
  %9 = getelementptr inbounds %"class.__gnu_cxx::__normal_iterator", ptr %5, i32 0, i32 0
  store ptr %0, ptr %9, align 8
  %10 = getelementptr inbounds %"class.__gnu_cxx::__normal_iterator", ptr %6, i32 0, i32 0
  store ptr %1, ptr %10, align 8
  %11 = getelementptr inbounds %"class.__gnu_cxx::__normal_iterator", ptr %7, i32 0, i32 0
  store ptr %2, ptr %11, align 8
  br label %12

12:                                               ; preds = %20, %3
  %13 = call noundef zeroext i1 @_ZN9__gnu_cxxneIPcNSt7__cxx1112basic_stringIcSt11char_traitsIcESaIcEEEEEbRKNS_17__normal_iteratorIT_T0_EESD_(ptr noundef nonnull align 8 dereferenceable(8) %5, ptr noundef nonnull align 8 dereferenceable(8) %6) #3
  br i1 %13, label %14, label %23

14:                                               ; preds = %12
  %15 = call noundef nonnull align 1 dereferenceable(1) ptr @_ZNK9__gnu_cxx17__normal_iteratorIPcNSt7__cxx1112basic_stringIcSt11char_traitsIcESaIcEEEEdeEv(ptr noundef nonnull align 8 dereferenceable(8) %5) #3
  %16 = load i8, ptr %15, align 1
  %17 = call noundef i32 @"_ZZNK4pkpy3Str5lowerEvENK3$_0clEh"(ptr noundef nonnull align 1 dereferenceable(1) %8, i8 noundef zeroext %16)
  %18 = trunc i32 %17 to i8
  %19 = call noundef nonnull align 1 dereferenceable(1) ptr @_ZNK9__gnu_cxx17__normal_iteratorIPcNSt7__cxx1112basic_stringIcSt11char_traitsIcESaIcEEEEdeEv(ptr noundef nonnull align 8 dereferenceable(8) %7) #3
  store i8 %18, ptr %19, align 1
  br label %20

20:                                               ; preds = %14
  %21 = call noundef nonnull align 8 dereferenceable(8) ptr @_ZN9__gnu_cxx17__normal_iteratorIPcNSt7__cxx1112basic_stringIcSt11char_traitsIcESaIcEEEEppEv(ptr noundef nonnull align 8 dereferenceable(8) %5) #3
  %22 = call noundef nonnull align 8 dereferenceable(8) ptr @_ZN9__gnu_cxx17__normal_iteratorIPcNSt7__cxx1112basic_stringIcSt11char_traitsIcESaIcEEEEppEv(ptr noundef nonnull align 8 dereferenceable(8) %7) #3
  br label %12, !llvm.loop !17

23:                                               ; preds = %12
  call void @llvm.memcpy.p0.p0.i64(ptr align 8 %4, ptr align 8 %7, i64 8, i1 false)
  %24 = getelementptr inbounds %"class.__gnu_cxx::__normal_iterator", ptr %4, i32 0, i32 0
  %25 = load ptr, ptr %24, align 8
  ret ptr %25
}

; Function Attrs: mustprogress uwtable
define void @_ZNK4pkpy3Str5lowerEv(ptr dead_on_unwind noalias writable sret(%"struct.pkpy::Str") align 8 %0, ptr noundef nonnull align 8 dereferenceable(32) %1) #4 align 2 personality ptr @__gxx_personality_v0 {
  %3 = alloca ptr, align 8
  %4 = alloca ptr, align 8
  %5 = alloca %"class.std::__cxx11::basic_string", align 8
  %6 = alloca %"class.std::allocator", align 1
  %7 = alloca ptr, align 8
  %8 = alloca i32, align 4
  %9 = alloca %"class.__gnu_cxx::__normal_iterator", align 8
  %10 = alloca %"class.__gnu_cxx::__normal_iterator", align 8
  %11 = alloca %"class.__gnu_cxx::__normal_iterator", align 8
  %12 = alloca %"class.__gnu_cxx::__normal_iterator", align 8
  store ptr %0, ptr %3, align 8
  store ptr %1, ptr %4, align 8
  %13 = load ptr, ptr %4, align 8
  %14 = getelementptr inbounds %"struct.pkpy::Str", ptr %13, i32 0, i32 2
  %15 = load ptr, ptr %14, align 8
  %16 = getelementptr inbounds %"struct.pkpy::Str", ptr %13, i32 0, i32 0
  %17 = load i32, ptr %16, align 8
  %18 = sext i32 %17 to i64
  call void @_ZNSaIcEC1Ev(ptr noundef nonnull align 1 dereferenceable(1) %6) #3
  invoke void @_ZNSt7__cxx1112basic_stringIcSt11char_traitsIcESaIcEEC1EPKcmRKS3_(ptr noundef nonnull align 8 dereferenceable(32) %5, ptr noundef %15, i64 noundef %18, ptr noundef nonnull align 1 dereferenceable(1) %6)
          to label %19 unwind label %36

19:                                               ; preds = %2
  call void @_ZNSaIcED1Ev(ptr noundef nonnull align 1 dereferenceable(1) %6) #3
  %20 = call ptr @_ZNSt7__cxx1112basic_stringIcSt11char_traitsIcESaIcEE5beginEv(ptr noundef nonnull align 8 dereferenceable(32) %5) #3
  %21 = getelementptr inbounds %"class.__gnu_cxx::__normal_iterator", ptr %9, i32 0, i32 0
  store ptr %20, ptr %21, align 8
  %22 = call ptr @_ZNSt7__cxx1112basic_stringIcSt11char_traitsIcESaIcEE3endEv(ptr noundef nonnull align 8 dereferenceable(32) %5) #3
  %23 = getelementptr inbounds %"class.__gnu_cxx::__normal_iterator", ptr %10, i32 0, i32 0
  store ptr %22, ptr %23, align 8
  %24 = call ptr @_ZNSt7__cxx1112basic_stringIcSt11char_traitsIcESaIcEE5beginEv(ptr noundef nonnull align 8 dereferenceable(32) %5) #3
  %25 = getelementptr inbounds %"class.__gnu_cxx::__normal_iterator", ptr %11, i32 0, i32 0
  store ptr %24, ptr %25, align 8
  %26 = getelementptr inbounds %"class.__gnu_cxx::__normal_iterator", ptr %9, i32 0, i32 0
  %27 = load ptr, ptr %26, align 8
  %28 = getelementptr inbounds %"class.__gnu_cxx::__normal_iterator", ptr %10, i32 0, i32 0
  %29 = load ptr, ptr %28, align 8
  %30 = getelementptr inbounds %"class.__gnu_cxx::__normal_iterator", ptr %11, i32 0, i32 0
  %31 = load ptr, ptr %30, align 8
  %32 = invoke ptr @"_ZSt9transformIN9__gnu_cxx17__normal_iteratorIPcNSt7__cxx1112basic_stringIcSt11char_traitsIcESaIcEEEEES9_ZNK4pkpy3Str5lowerEvE3$_0ET0_T_SE_SD_T1_"(ptr %27, ptr %29, ptr %31)
          to label %33 unwind label %40

33:                                               ; preds = %19
  %34 = getelementptr inbounds %"class.__gnu_cxx::__normal_iterator", ptr %12, i32 0, i32 0
  store ptr %32, ptr %34, align 8
  invoke void @_ZN4pkpy3StrC1ERKNSt7__cxx1112basic_stringIcSt11char_traitsIcESaIcEEE(ptr noundef nonnull align 8 dereferenceable(32) %0, ptr noundef nonnull align 8 dereferenceable(32) %5)
          to label %35 unwind label %40

35:                                               ; preds = %33
  call void @_ZNSt7__cxx1112basic_stringIcSt11char_traitsIcESaIcEED1Ev(ptr noundef nonnull align 8 dereferenceable(32) %5) #3
  ret void

36:                                               ; preds = %2
  %37 = landingpad { ptr, i32 }
          cleanup
  %38 = extractvalue { ptr, i32 } %37, 0
  store ptr %38, ptr %7, align 8
  %39 = extractvalue { ptr, i32 } %37, 1
  store i32 %39, ptr %8, align 4
  call void @_ZNSaIcED1Ev(ptr noundef nonnull align 1 dereferenceable(1) %6) #3
  br label %44

40:                                               ; preds = %33, %19
  %41 = landingpad { ptr, i32 }
          cleanup
  %42 = extractvalue { ptr, i32 } %41, 0
  store ptr %42, ptr %7, align 8
  %43 = extractvalue { ptr, i32 } %41, 1
  store i32 %43, ptr %8, align 4
  call void @_ZNSt7__cxx1112basic_stringIcSt11char_traitsIcESaIcEED1Ev(ptr noundef nonnull align 8 dereferenceable(32) %5) #3
  br label %44

44:                                               ; preds = %40, %36
  %45 = load ptr, ptr %7, align 8
  %46 = load i32, ptr %8, align 4
  %47 = insertvalue { ptr, i32 } poison, ptr %45, 0
  %48 = insertvalue { ptr, i32 } %47, i32 %46, 1
  resume { ptr, i32 } %48
}